target datalayout = "e-m:e-p270:32:32-p271:32:32-p272:64:64-i64:64-i128:128-f80:128-n8:16:32:64-S128"
target triple = "x86_64-pc-linux-gnu"

%struct.pattern_inference_params_helper = type { ptr, %class.params_ref }
%class.params_ref = type { ptr }
%struct.pattern_inference_params = type <{ i8, [3 x i8], i32, i8, i8, [2 x i8], i32, i8, [3 x i8], i32, i32, i8, [3 x i8], i32, i8, i8, [2 x i8] }>

@.str.12 = private unnamed_addr constant [3 x i8] c"pi\00", align 1
@.str.13 = private unnamed_addr constant [8 x i8] c"enabled\00", align 1
@.str.14 = private unnamed_addr constant [19 x i8] c"max_multi_patterns\00", align 1
@.str.15 = private unnamed_addr constant [20 x i8] c"block_loop_patterns\00", align 1
@.str.16 = private unnamed_addr constant [19 x i8] c"decompose_patterns\00", align 1
@.str.17 = private unnamed_addr constant [6 x i8] c"arith\00", align 1
@.str.18 = private unnamed_addr constant [13 x i8] c"use_database\00", align 1
@.str.19 = private unnamed_addr constant [13 x i8] c"arith_weight\00", align 1
@.str.20 = private unnamed_addr constant [24 x i8] c"non_nested_arith_weight\00", align 1
@.str.21 = private unnamed_addr constant [17 x i8] c"pull_quantifiers\00", align 1
@.str.22 = private unnamed_addr constant [9 x i8] c"warnings\00", align 1

; Function Attrs: inlinehint mustprogress nounwind uwtable
define linkonce_odr hidden void @_ZN31pattern_inference_params_helperD2Ev(ptr noundef nonnull align 8 dereferenceable(16) %0) unnamed_addr #6 comdat align 2 {
  %2 = alloca ptr, align 8
  store ptr %0, ptr %2, align 8, !tbaa !24
  %3 = load ptr, ptr %2, align 8
  %4 = getelementptr inbounds nuw %struct.pattern_inference_params_helper, ptr %3, i32 0, i32 1
  call void @_ZN10params_refD1Ev(ptr noundef nonnull align 8 dereferenceable(8) %4) #3
  ret void
}

; Function Attrs: mustprogress uwtable
define linkonce_odr hidden noundef zeroext i1 @_ZNK31pattern_inference_params_helper8warningsEv(ptr noundef nonnull align 8 dereferenceable(16) %0) #4 comdat align 2 {
  %2 = alloca ptr, align 8
  store ptr %0, ptr %2, align 8, !tbaa !24
  %3 = load ptr, ptr %2, align 8
  %4 = getelementptr inbounds nuw %struct.pattern_inference_params_helper, ptr %3, i32 0, i32 0
  %5 = load ptr, ptr %4, align 8, !tbaa !26
  %6 = getelementptr inbounds nuw %struct.pattern_inference_params_helper, ptr %3, i32 0, i32 1
  %7 = call noundef zeroext i1 @_ZNK10params_ref8get_boolEPKcRKS_b(ptr noundef nonnull align 8 dereferenceable(8) %5, ptr noundef @.str.22, ptr noundef nonnull align 8 dereferenceable(8) %6, i1 noundef zeroext false)
  ret i1 %7
}

; Function Attrs: mustprogress uwtable
define linkonce_odr hidden noundef zeroext i1 @_ZNK31pattern_inference_params_helper16pull_quantifiersEv(ptr noundef nonnull align 8 dereferenceable(16) %0) #4 comdat align 2 {
  %2 = alloca ptr, align 8
  store ptr %0, ptr %2, align 8, !tbaa !24
  %3 = load ptr, ptr %2, align 8
  %4 = getelementptr inbounds nuw %struct.pattern_inference_params_helper, ptr %3, i32 0, i32 0
  %5 = load ptr, ptr %4, align 8, !tbaa !26
  %6 = getelementptr inbounds nuw %struct.pattern_inference_params_helper, ptr %3, i32 0, i32 1
  %7 = call noundef zeroext i1 @_ZNK10params_ref8get_boolEPKcRKS_b(ptr noundef nonnull align 8 dereferenceable(8) %5, ptr noundef @.str.21, ptr noundef nonnull align 8 dereferenceable(8) %6, i1 noundef zeroext true)
  ret i1 %7
}

; Function Attrs: mustprogress uwtable
define linkonce_odr hidden noundef i32 @_ZNK31pattern_inference_params_helper23non_nested_arith_weightEv(ptr noundef nonnull align 8 dereferenceable(16) %0) #4 comdat align 2 {
  %2 = alloca ptr, align 8
  store ptr %0, ptr %2, align 8, !tbaa !24
  %3 = load ptr, ptr %2, align 8
  %4 = getelementptr inbounds nuw %struct.pattern_inference_params_helper, ptr %3, i32 0, i32 0
  %5 = load ptr, ptr %4, align 8, !tbaa !26
  %6 = getelementptr inbounds nuw %struct.pattern_inference_params_helper, ptr %3, i32 0, i32 1
  %7 = call noundef i32 @_ZNK10params_ref8get_uintEPKcRKS_j(ptr noundef nonnull align 8 dereferenceable(8) %5, ptr noundef @.str.20, ptr noundef nonnull align 8 dereferenceable(8) %6, i32 noundef 10)
  ret i32 %7
}

; Function Attrs: mustprogress uwtable
define linkonce_odr hidden noundef i32 @_ZNK31pattern_inference_params_helper12arith_weightEv(ptr noundef nonnull align 8 dereferenceable(16) %0) #4 comdat align 2 {
  %2 = alloca ptr, align 8
  store ptr %0, ptr %2, align 8, !tbaa !24
  %3 = load ptr, ptr %2, align 8
  %4 = getelementptr inbounds nuw %struct.pattern_inference_params_helper, ptr %3, i32 0, i32 0
  %5 = load ptr, ptr %4, align 8, !tbaa !26
  %6 = getelementptr inbounds nuw %struct.pattern_inference_params_helper, ptr %3, i32 0, i32 1
  %7 = call noundef i32 @_ZNK10params_ref8get_uintEPKcRKS_j(ptr noundef nonnull align 8 dereferenceable(8) %5, ptr noundef @.str.19, ptr noundef nonnull align 8 dereferenceable(8) %6, i32 noundef 5)
  ret i32 %7
}

; Function Attrs: mustprogress uwtable
define linkonce_odr hidden noundef zeroext i1 @_ZNK31pattern_inference_params_helper12use_databaseEv(ptr noundef nonnull align 8 dereferenceable(16) %0) #4 comdat align 2 {
  %2 = alloca ptr, align 8
  store ptr %0, ptr %2, align 8, !tbaa !24
  %3 = load ptr, ptr %2, align 8
  %4 = getelementptr inbounds nuw %struct.pattern_inference_params_helper, ptr %3, i32 0, i32 0
  %5 = load ptr, ptr %4, align 8, !tbaa !26
  %6 = getelementptr inbounds nuw %struct.pattern_inference_params_helper, ptr %3, i32 0, i32 1
  %7 = call noundef zeroext i1 @_ZNK10params_ref8get_boolEPKcRKS_b(ptr noundef nonnull align 8 dereferenceable(8) %5, ptr noundef @.str.18, ptr noundef nonnull align 8 dereferenceable(8) %6, i1 noundef zeroext false)
  ret i1 %7
}

; Function Attrs: mustprogress uwtable
define linkonce_odr hidden noundef i32 @_ZNK31pattern_inference_params_helper5arithEv(ptr noundef nonnull align 8 dereferenceable(16) %0) #4 comdat align 2 {
  %2 = alloca ptr, align 8
  store ptr %0, ptr %2, align 8, !tbaa !24
  %3 = load ptr, ptr %2, align 8
  %4 = getelementptr inbounds nuw %struct.pattern_inference_params_helper, ptr %3, i32 0, i32 0
  %5 = load ptr, ptr %4, align 8, !tbaa !26
  %6 = getelementptr inbounds nuw %struct.pattern_inference_params_helper, ptr %3, i32 0, i32 1
  %7 = call noundef i32 @_ZNK10params_ref8get_uintEPKcRKS_j(ptr noundef nonnull align 8 dereferenceable(8) %5, ptr noundef @.str.17, ptr noundef nonnull align 8 dereferenceable(8) %6, i32 noundef 1)
  ret i32 %7
}

; Function Attrs: mustprogress uwtable
define linkonce_odr hidden noundef zeroext i1 @_ZNK31pattern_inference_params_helper18decompose_patternsEv(ptr noundef nonnull align 8 dereferenceable(16) %0) #4 comdat align 2 {
  %2 = alloca ptr, align 8
  store ptr %0, ptr %2, align 8, !tbaa !24
  %3 = load ptr, ptr %2, align 8
  %4 = getelementptr inbounds nuw %struct.pattern_inference_params_helper, ptr %3, i32 0, i32 0
  %5 = load ptr, ptr %4, align 8, !tbaa !26
  %6 = getelementptr inbounds nuw %struct.pattern_inference_params_helper, ptr %3, i32 0, i32 1
  %7 = call noundef zeroext i1 @_ZNK10params_ref8get_boolEPKcRKS_b(ptr noundef nonnull align 8 dereferenceable(8) %5, ptr noundef @.str.16, ptr noundef nonnull align 8 dereferenceable(8) %6, i1 noundef zeroext true)
  ret i1 %7
}

; Function Attrs: mustprogress uwtable
define linkonce_odr hidden noundef zeroext i1 @_ZNK31pattern_inference_params_helper19block_loop_patternsEv(ptr noundef nonnull align 8 dereferenceable(16) %0) #4 comdat align 2 {
  %2 = alloca ptr, align 8
  store ptr %0, ptr %2, align 8, !tbaa !24
  %3 = load ptr, ptr %2, align 8
  %4 = getelementptr inbounds nuw %struct.pattern_inference_params_helper, ptr %3, i32 0, i32 0
  %5 = load ptr, ptr %4, align 8, !tbaa !26
  %6 = getelementptr inbounds nuw %struct.pattern_inference_params_helper, ptr %3, i32 0, i32 1
  %7 = call noundef zeroext i1 @_ZNK10params_ref8get_boolEPKcRKS_b(ptr noundef nonnull align 8 dereferenceable(8) %5, ptr noundef @.str.15, ptr noundef nonnull align 8 dereferenceable(8) %6, i1 noundef zeroext true)
  ret i1 %7
}

; Function Attrs: mustprogress uwtable
define linkonce_odr hidden noundef i32 @_ZNK31pattern_inference_params_helper18max_multi_patternsEv(ptr noundef nonnull align 8 dereferenceable(16) %0) #4 comdat align 2 {
  %2 = alloca ptr, align 8
  store ptr %0, ptr %2, align 8, !tbaa !24
  %3 = load ptr, ptr %2, align 8
  %4 = getelementptr inbounds nuw %struct.pattern_inference_params_helper, ptr %3, i32 0, i32 0
  %5 = load ptr, ptr %4, align 8, !tbaa !26
  %6 = getelementptr inbounds nuw %struct.pattern_inference_params_helper, ptr %3, i32 0, i32 1
  %7 = call noundef i32 @_ZNK10params_ref8get_uintEPKcRKS_j(ptr noundef nonnull align 8 dereferenceable(8) %5, ptr noundef @.str.14, ptr noundef nonnull align 8 dereferenceable(8) %6, i32 noundef 0)
  ret i32 %7
}

; Function Attrs: mustprogress uwtable
define linkonce_odr hidden noundef zeroext i1 @_ZNK31pattern_inference_params_helper7enabledEv(ptr noundef nonnull align 8 dereferenceable(16) %0) #4 comdat align 2 {
  %2 = alloca ptr, align 8
  store ptr %0, ptr %2, align 8, !tbaa !24
  %3 = load ptr, ptr %2, align 8
  %4 = getelementptr inbounds nuw %struct.pattern_inference_params_helper, ptr %3, i32 0, i32 0
  %5 = load ptr, ptr %4, align 8, !tbaa !26
  %6 = getelementptr inbounds nuw %struct.pattern_inference_params_helper, ptr %3, i32 0, i32 1
  %7 = call noundef zeroext i1 @_ZNK10params_ref8get_boolEPKcRKS_b(ptr noundef nonnull align 8 dereferenceable(8) %5, ptr noundef @.str.13, ptr noundef nonnull align 8 dereferenceable(8) %6, i1 noundef zeroext true)
  ret i1 %7
}

; Function Attrs: mustprogress uwtable
define linkonce_odr hidden void @_ZN31pattern_inference_params_helperC2ERK10params_ref(ptr noundef nonnull align 8 dereferenceable(16) %0, ptr noundef nonnull align 8 dereferenceable(8) %1) unnamed_addr #4 comdat align 2 {
  %3 = alloca ptr, align 8
  %4 = alloca ptr, align 8
  store ptr %0, ptr %3, align 8, !tbaa !24
  store ptr %1, ptr %4, align 8, !tbaa !8
  %5 = load ptr, ptr %3, align 8
  %6 = getelementptr inbounds nuw %struct.pattern_inference_params_helper, ptr %5, i32 0, i32 0
  %7 = load ptr, ptr %4, align 8, !tbaa !8
  store ptr %7, ptr %6, align 8, !tbaa !8
  %8 = getelementptr inbounds nuw %struct.pattern_inference_params_helper, ptr %5, i32 0, i32 1
  call void @_ZN7gparams10get_moduleEPKc(ptr dead_on_unwind writable sret(%class.params_ref) align 8 %8, ptr noundef @.str.12)
  ret void
}

; Function Attrs: mustprogress uwtable
define hidden void @_ZN24pattern_inference_params11updt_paramsERK10params_ref(ptr noundef nonnull align 4 dereferenceable(38) %0, ptr noundef nonnull align 8 dereferenceable(8) %1) #4 align 2 personality ptr @__gxx_personality_v0 {
  %3 = alloca ptr, align 8
  %4 = alloca ptr, align 8
  %5 = alloca %struct.pattern_inference_params_helper, align 8
  %6 = alloca ptr, align 8
  %7 = alloca i32, align 4
  store ptr %0, ptr %3, align 8, !tbaa !3
  store ptr %1, ptr %4, align 8, !tbaa !8
  %8 = load ptr, ptr %3, align 8
  call void @llvm.lifetime.start.p0(i64 16, ptr %5) #3
  %9 = load ptr, ptr %4, align 8, !tbaa !8
  call void @_ZN31pattern_inference_params_helperC2ERK10params_ref(ptr noundef nonnull align 8 dereferenceable(16) %5, ptr noundef nonnull align 8 dereferenceable(8) %9)
  %10 = invoke noundef zeroext i1 @_ZNK31pattern_inference_params_helper7enabledEv(ptr noundef nonnull align 8 dereferenceable(16) %5)
          to label %11 unwind label %46

11:                                               ; preds = %2
  %12 = getelementptr inbounds nuw %struct.pattern_inference_params, ptr %8, i32 0, i32 0
  %13 = zext i1 %10 to i8
  store i8 %13, ptr %12, align 4, !tbaa !10
  %14 = invoke noundef i32 @_ZNK31pattern_inference_params_helper18max_multi_patternsEv(ptr noundef nonnull align 8 dereferenceable(16) %5)
          to label %15 unwind label %46

15:                                               ; preds = %11
  %16 = getelementptr inbounds nuw %struct.pattern_inference_params, ptr %8, i32 0, i32 2
  store i32 %14, ptr %16, align 4, !tbaa !15
  %17 = invoke noundef zeroext i1 @_ZNK31pattern_inference_params_helper19block_loop_patternsEv(ptr noundef nonnull align 8 dereferenceable(16) %5)
          to label %18 unwind label %46

18:                                               ; preds = %15
  %19 = getelementptr inbounds nuw %struct.pattern_inference_params, ptr %8, i32 0, i32 3
  %20 = zext i1 %17 to i8
  store i8 %20, ptr %19, align 4, !tbaa !16
  %21 = invoke noundef zeroext i1 @_ZNK31pattern_inference_params_helper18decompose_patternsEv(ptr noundef nonnull align 8 dereferenceable(16) %5)
          to label %22 unwind label %46

22:                                               ; preds = %18
  %23 = getelementptr inbounds nuw %struct.pattern_inference_params, ptr %8, i32 0, i32 4
  %24 = zext i1 %21 to i8
  store i8 %24, ptr %23, align 1, !tbaa !17
  %25 = invoke noundef i32 @_ZNK31pattern_inference_params_helper5arithEv(ptr noundef nonnull align 8 dereferenceable(16) %5)
          to label %26 unwind label %46

26:                                               ; preds = %22
  %27 = getelementptr inbounds nuw %struct.pattern_inference_params, ptr %8, i32 0, i32 6
  store i32 %25, ptr %27, align 4, !tbaa !18
  %28 = invoke noundef zeroext i1 @_ZNK31pattern_inference_params_helper12use_databaseEv(ptr noundef nonnull align 8 dereferenceable(16) %5)
          to label %29 unwind label %46

29:                                               ; preds = %26
  %30 = getelementptr inbounds nuw %struct.pattern_inference_params, ptr %8, i32 0, i32 7
  %31 = zext i1 %28 to i8
  store i8 %31, ptr %30, align 4, !tbaa !19
  %32 = invoke noundef i32 @_ZNK31pattern_inference_params_helper12arith_weightEv(ptr noundef nonnull align 8 dereferenceable(16) %5)
          to label %33 unwind label %46

33:                                               ; preds = %29
  %34 = getelementptr inbounds nuw %struct.pattern_inference_params, ptr %8, i32 0, i32 9
  store i32 %32, ptr %34, align 4, !tbaa !20
  %35 = invoke noundef i32 @_ZNK31pattern_inference_params_helper23non_nested_arith_weightEv(ptr noundef nonnull align 8 dereferenceable(16) %5)
          to label %36 unwind label %46

36:                                               ; preds = %33
  %37 = getelementptr inbounds nuw %struct.pattern_inference_params, ptr %8, i32 0, i32 10
  store i32 %35, ptr %37, align 4, !tbaa !21
  %38 = invoke noundef zeroext i1 @_ZNK31pattern_inference_params_helper16pull_quantifiersEv(ptr noundef nonnull align 8 dereferenceable(16) %5)
          to label %39 unwind label %46

39:                                               ; preds = %36
  %40 = getelementptr inbounds nuw %struct.pattern_inference_params, ptr %8, i32 0, i32 11
  %41 = zext i1 %38 to i8
  store i8 %41, ptr %40, align 4, !tbaa !22
  %42 = invoke noundef zeroext i1 @_ZNK31pattern_inference_params_helper8warningsEv(ptr noundef nonnull align 8 dereferenceable(16) %5)
          to label %43 unwind label %46

43:                                               ; preds = %39
  %44 = getelementptr inbounds nuw %struct.pattern_inference_params, ptr %8, i32 0, i32 15
  %45 = zext i1 %42 to i8
  store i8 %45, ptr %44, align 1, !tbaa !23
  call void @_ZN31pattern_inference_params_helperD2Ev(ptr noundef nonnull align 8 dereferenceable(16) %5) #3
  call void @llvm.lifetime.end.p0(i64 16, ptr %5) #3
  ret void

46:                                               ; preds = %39, %36, %33, %29, %26, %22, %18, %15, %11, %2
  %47 = landingpad { ptr, i32 }
          cleanup
  %48 = extractvalue { ptr, i32 } %47, 0
  store ptr %48, ptr %6, align 8
  %49 = extractvalue { ptr, i32 } %47, 1
  store i32 %49, ptr %7, align 4
  call void @_ZN31pattern_inference_params_helperD2Ev(ptr noundef nonnull align 8 dereferenceable(16) %5) #3
  call void @llvm.lifetime.end.p0(i64 16, ptr %5) #3
  br label %50

50:                                               ; preds = %46
  %51 = load ptr, ptr %6, align 8
  %52 = load i32, ptr %7, align 4
  %53 = insertvalue { ptr, i32 } poison, ptr %51, 0
  %54 = insertvalue { ptr, i32 } %53, i32 %52, 1
  resume { ptr, i32 } %54
}