; Function Attrs: mustprogress uwtable
define hidden void @_ZN24pattern_inference_params11updt_paramsERK10params_ref(ptr noundef nonnull writeonly align 4 captures(none) dereferenceable(38) %0, ptr noundef nonnull align 8 dereferenceable(8) %1) local_unnamed_addr #3 align 2 personality ptr @__gxx_personality_v0 {
  %3 = alloca %struct.pattern_inference_params_helper, align 8
  call void @llvm.lifetime.start.p0(i64 16, ptr nonnull %3) #6
  store ptr %1, ptr %3, align 8, !tbaa !3
  %4 = getelementptr inbounds nuw i8, ptr %3, i64 8
  call void @_ZN7gparams10get_moduleEPKc(ptr dead_on_unwind nonnull writable sret(%class.params_ref) align 8 %4, ptr noundef nonnull @.str.12)
  %5 = load ptr, ptr %3, align 8, !tbaa !8
  %6 = invoke noundef zeroext i1 @_ZNK10params_ref8get_boolEPKcRKS_b(ptr noundef nonnull align 8 dereferenceable(8) %5, ptr noundef nonnull @.str.13, ptr noundef nonnull align 8 dereferenceable(8) %4, i1 noundef zeroext true)
          to label %_ZNK31pattern_inference_params_helper7enabledEv.exit unwind label %40

_ZNK31pattern_inference_params_helper7enabledEv.exit: ; preds = %2
  %7 = zext i1 %6 to i8
  store i8 %7, ptr %0, align 4, !tbaa !12
  %8 = load ptr, ptr %3, align 8, !tbaa !8
  %9 = invoke noundef i32 @_ZNK10params_ref8get_uintEPKcRKS_j(ptr noundef nonnull align 8 dereferenceable(8) %8, ptr noundef nonnull @.str.14, ptr noundef nonnull align 8 dereferenceable(8) %4, i32 noundef 0)
          to label %_ZNK31pattern_inference_params_helper18max_multi_patternsEv.exit unwind label %40

_ZNK31pattern_inference_params_helper18max_multi_patternsEv.exit: ; preds = %_ZNK31pattern_inference_params_helper7enabledEv.exit
  %10 = getelementptr inbounds nuw i8, ptr %0, i64 4
  store i32 %9, ptr %10, align 4, !tbaa !17
  %11 = load ptr, ptr %3, align 8, !tbaa !8
  %12 = invoke noundef zeroext i1 @_ZNK10params_ref8get_boolEPKcRKS_b(ptr noundef nonnull align 8 dereferenceable(8) %11, ptr noundef nonnull @.str.15, ptr noundef nonnull align 8 dereferenceable(8) %4, i1 noundef zeroext true)
          to label %_ZNK31pattern_inference_params_helper19block_loop_patternsEv.exit unwind label %40

_ZNK31pattern_inference_params_helper19block_loop_patternsEv.exit: ; preds = %_ZNK31pattern_inference_params_helper18max_multi_patternsEv.exit
  %13 = getelementptr inbounds nuw i8, ptr %0, i64 8
  %14 = zext i1 %12 to i8
  store i8 %14, ptr %13, align 4, !tbaa !18
  %15 = load ptr, ptr %3, align 8, !tbaa !8
  %16 = invoke noundef zeroext i1 @_ZNK10params_ref8get_boolEPKcRKS_b(ptr noundef nonnull align 8 dereferenceable(8) %15, ptr noundef nonnull @.str.16, ptr noundef nonnull align 8 dereferenceable(8) %4, i1 noundef zeroext true)
          to label %_ZNK31pattern_inference_params_helper18decompose_patternsEv.exit unwind label %40

_ZNK31pattern_inference_params_helper18decompose_patternsEv.exit: ; preds = %_ZNK31pattern_inference_params_helper19block_loop_patternsEv.exit
  %17 = getelementptr inbounds nuw i8, ptr %0, i64 9
  %18 = zext i1 %16 to i8
  store i8 %18, ptr %17, align 1, !tbaa !19
  %19 = load ptr, ptr %3, align 8, !tbaa !8
  %20 = invoke noundef i32 @_ZNK10params_ref8get_uintEPKcRKS_j(ptr noundef nonnull align 8 dereferenceable(8) %19, ptr noundef nonnull @.str.17, ptr noundef nonnull align 8 dereferenceable(8) %4, i32 noundef 1)
          to label %_ZNK31pattern_inference_params_helper5arithEv.exit unwind label %40

_ZNK31pattern_inference_params_helper5arithEv.exit: ; preds = %_ZNK31pattern_inference_params_helper18decompose_patternsEv.exit
  %21 = getelementptr inbounds nuw i8, ptr %0, i64 12
  store i32 %20, ptr %21, align 4, !tbaa !20
  %22 = load ptr, ptr %3, align 8, !tbaa !8
  %23 = invoke noundef zeroext i1 @_ZNK10params_ref8get_boolEPKcRKS_b(ptr noundef nonnull align 8 dereferenceable(8) %22, ptr noundef nonnull @.str.18, ptr noundef nonnull align 8 dereferenceable(8) %4, i1 noundef zeroext false)
          to label %_ZNK31pattern_inference_params_helper12use_databaseEv.exit unwind label %40

_ZNK31pattern_inference_params_helper12use_databaseEv.exit: ; preds = %_ZNK31pattern_inference_params_helper5arithEv.exit
  %24 = getelementptr inbounds nuw i8, ptr %0, i64 16
  %25 = zext i1 %23 to i8
  store i8 %25, ptr %24, align 4, !tbaa !21
  %26 = load ptr, ptr %3, align 8, !tbaa !8
  %27 = invoke noundef i32 @_ZNK10params_ref8get_uintEPKcRKS_j(ptr noundef nonnull align 8 dereferenceable(8) %26, ptr noundef nonnull @.str.19, ptr noundef nonnull align 8 dereferenceable(8) %4, i32 noundef 5)
          to label %_ZNK31pattern_inference_params_helper12arith_weightEv.exit unwind label %40

_ZNK31pattern_inference_params_helper12arith_weightEv.exit: ; preds = %_ZNK31pattern_inference_params_helper12use_databaseEv.exit
  %28 = getelementptr inbounds nuw i8, ptr %0, i64 20
  store i32 %27, ptr %28, align 4, !tbaa !22
  %29 = load ptr, ptr %3, align 8, !tbaa !8
  %30 = invoke noundef i32 @_ZNK10params_ref8get_uintEPKcRKS_j(ptr noundef nonnull align 8 dereferenceable(8) %29, ptr noundef nonnull @.str.20, ptr noundef nonnull align 8 dereferenceable(8) %4, i32 noundef 10)
          to label %_ZNK31pattern_inference_params_helper23non_nested_arith_weightEv.exit unwind label %40

_ZNK31pattern_inference_params_helper23non_nested_arith_weightEv.exit: ; preds = %_ZNK31pattern_inference_params_helper12arith_weightEv.exit
  %31 = getelementptr inbounds nuw i8, ptr %0, i64 24
  store i32 %30, ptr %31, align 4, !tbaa !23
  %32 = load ptr, ptr %3, align 8, !tbaa !8
  %33 = invoke noundef zeroext i1 @_ZNK10params_ref8get_boolEPKcRKS_b(ptr noundef nonnull align 8 dereferenceable(8) %32, ptr noundef nonnull @.str.21, ptr noundef nonnull align 8 dereferenceable(8) %4, i1 noundef zeroext true)
          to label %_ZNK31pattern_inference_params_helper16pull_quantifiersEv.exit unwind label %40

_ZNK31pattern_inference_params_helper16pull_quantifiersEv.exit: ; preds = %_ZNK31pattern_inference_params_helper23non_nested_arith_weightEv.exit
  %34 = getelementptr inbounds nuw i8, ptr %0, i64 28
  %35 = zext i1 %33 to i8
  store i8 %35, ptr %34, align 4, !tbaa !24
  %36 = load ptr, ptr %3, align 8, !tbaa !8
  %37 = invoke noundef zeroext i1 @_ZNK10params_ref8get_boolEPKcRKS_b(ptr noundef nonnull align 8 dereferenceable(8) %36, ptr noundef nonnull @.str.22, ptr noundef nonnull align 8 dereferenceable(8) %4, i1 noundef zeroext false)
          to label %_ZNK31pattern_inference_params_helper8warningsEv.exit unwind label %40

_ZNK31pattern_inference_params_helper8warningsEv.exit: ; preds = %_ZNK31pattern_inference_params_helper16pull_quantifiersEv.exit
  %38 = getelementptr inbounds nuw i8, ptr %0, i64 37
  %39 = zext i1 %37 to i8
  store i8 %39, ptr %38, align 1, !tbaa !25
  call void @_ZN10params_refD1Ev(ptr noundef nonnull align 8 dereferenceable(8) %4) #6
  call void @llvm.lifetime.end.p0(i64 16, ptr nonnull %3) #6
  ret void

40:                                               ; preds = %_ZNK31pattern_inference_params_helper16pull_quantifiersEv.exit, %_ZNK31pattern_inference_params_helper23non_nested_arith_weightEv.exit, %_ZNK31pattern_inference_params_helper12arith_weightEv.exit, %_ZNK31pattern_inference_params_helper12use_databaseEv.exit, %_ZNK31pattern_inference_params_helper5arithEv.exit, %_ZNK31pattern_inference_params_helper18decompose_patternsEv.exit, %_ZNK31pattern_inference_params_helper19block_loop_patternsEv.exit, %_ZNK31pattern_inference_params_helper18max_multi_patternsEv.exit, %_ZNK31pattern_inference_params_helper7enabledEv.exit, %2
  %41 = landingpad { ptr, i32 }
          cleanup
  call void @_ZN10params_refD1Ev(ptr noundef nonnull align 8 dereferenceable(8) %4) #6
  call void @llvm.lifetime.end.p0(i64 16, ptr nonnull %3) #6
  resume { ptr, i32 } %41
}